target datalayout = "e-m:e-p270:32:32-p271:32:32-p272:64:64-i64:64-i128:128-f80:128-n8:16:32:64-S128"
target triple = "x86_64-pc-linux-gnu"

%"class.gmx::ArrayRef" = type { %"struct.gmx::ArrayRefIter", %"struct.gmx::ArrayRefIter" }
%"struct.gmx::ArrayRefIter" = type { ptr }
%struct.gmx_pme_t = type { i32, i32, i32, i32, i32, i32, i32, ptr, [2 x ptr], ptr, i8, i32, i8, i8, i8, i8, i8, i8, i32, i32, i32, i8, i32, float, float, float, i32, float, i32, ptr, %"class.std::unique_ptr", i32, i32, i32, i32, i32, i32, i32, i32, %"class.std::unique_ptr.2", %"class.std::shared_ptr", %"class.std::vector", %"class.std::vector", %"class.std::vector.10", %"class.std::vector.15", %"class.std::vector.20", %"class.std::vector.20", %"class.std::vector.20", %"class.std::vector.25", %"class.std::vector.25", %"class.std::vector.25", %"class.std::vector.30", [3 x [3 x float]], float, %"struct.std::array", %"class.std::vector.35", %"class.std::vector.35", %"struct.std::array.37", %"class.std::unique_ptr.43", %"class.std::vector.51", %"class.std::vector.25", %"class.std::unique_ptr.56" }
%"class.std::unique_ptr" = type { %"struct.std::__uniq_ptr_data" }
%"struct.std::__uniq_ptr_data" = type { %"class.std::__uniq_ptr_impl" }
%"class.std::__uniq_ptr_impl" = type { %"class.std::tuple" }
%"class.std::tuple" = type { %"struct.std::_Tuple_impl" }
%"struct.std::_Tuple_impl" = type { %"struct.std::_Head_base.1" }
%"struct.std::_Head_base.1" = type { ptr }
%"class.std::unique_ptr.2" = type { %"struct.std::__uniq_ptr_data.3" }
%"struct.std::__uniq_ptr_data.3" = type { %"class.std::__uniq_ptr_impl.4" }
%"class.std::__uniq_ptr_impl.4" = type { %"class.std::tuple.5" }
%"class.std::tuple.5" = type { %"struct.std::_Tuple_impl.6" }
%"struct.std::_Tuple_impl.6" = type { %"struct.std::_Head_base.9" }
%"struct.std::_Head_base.9" = type { ptr }
%"class.std::shared_ptr" = type { %"class.std::__shared_ptr" }
%"class.std::__shared_ptr" = type { ptr, %"class.std::__shared_count" }
%"class.std::__shared_count" = type { ptr }
%"class.std::vector" = type { %"struct.std::_Vector_base" }
%"struct.std::_Vector_base" = type { %"struct.std::_Vector_base<PmeAndFftGrids, std::allocator<PmeAndFftGrids>>::_Vector_impl" }
%"struct.std::_Vector_base<PmeAndFftGrids, std::allocator<PmeAndFftGrids>>::_Vector_impl" = type { %"struct.std::_Vector_base<PmeAndFftGrids, std::allocator<PmeAndFftGrids>>::_Vector_impl_data" }
%"struct.std::_Vector_base<PmeAndFftGrids, std::allocator<PmeAndFftGrids>>::_Vector_impl_data" = type { ptr, ptr, ptr }
%"class.std::vector.10" = type { %"struct.std::_Vector_base.11" }
%"struct.std::_Vector_base.11" = type { %"struct.std::_Vector_base<gmx_pme_t::GridsRef, std::allocator<gmx_pme_t::GridsRef>>::_Vector_impl" }
%"struct.std::_Vector_base<gmx_pme_t::GridsRef, std::allocator<gmx_pme_t::GridsRef>>::_Vector_impl" = type { %"struct.std::_Vector_base<gmx_pme_t::GridsRef, std::allocator<gmx_pme_t::GridsRef>>::_Vector_impl_data" }
%"struct.std::_Vector_base<gmx_pme_t::GridsRef, std::allocator<gmx_pme_t::GridsRef>>::_Vector_impl_data" = type { ptr, ptr, ptr }
%"class.std::vector.15" = type { %"struct.std::_Vector_base.16" }
%"struct.std::_Vector_base.16" = type { %"struct.std::_Vector_base<t_complex *, std::allocator<t_complex *>>::_Vector_impl" }
%"struct.std::_Vector_base<t_complex *, std::allocator<t_complex *>>::_Vector_impl" = type { %"struct.std::_Vector_base<t_complex *, std::allocator<t_complex *>>::_Vector_impl_data" }
%"struct.std::_Vector_base<t_complex *, std::allocator<t_complex *>>::_Vector_impl_data" = type { ptr, ptr, ptr }
%"class.std::vector.20" = type { %"struct.std::_Vector_base.21" }
%"struct.std::_Vector_base.21" = type { %"struct.std::_Vector_base<int, std::allocator<int>>::_Vector_impl" }
%"struct.std::_Vector_base<int, std::allocator<int>>::_Vector_impl" = type { %"struct.std::_Vector_base<int, std::allocator<int>>::_Vector_impl_data" }
%"struct.std::_Vector_base<int, std::allocator<int>>::_Vector_impl_data" = type { ptr, ptr, ptr }
%"class.std::vector.30" = type { %"struct.std::_Vector_base.31" }
%"struct.std::_Vector_base.31" = type { %"struct.std::_Vector_base<PmeAtomComm, std::allocator<PmeAtomComm>>::_Vector_impl" }
%"struct.std::_Vector_base<PmeAtomComm, std::allocator<PmeAtomComm>>::_Vector_impl" = type { %"struct.std::_Vector_base<PmeAtomComm, std::allocator<PmeAtomComm>>::_Vector_impl_data" }
%"struct.std::_Vector_base<PmeAtomComm, std::allocator<PmeAtomComm>>::_Vector_impl_data" = type { ptr, ptr, ptr }
%"struct.std::array" = type { [3 x %"class.std::vector.25"] }
%"class.std::vector.35" = type { %"struct.std::_Vector_base.36" }
%"struct.std::_Vector_base.36" = type { %"struct.std::_Vector_base<float, gmx::DefaultInitializationAllocator<float>>::_Vector_impl" }
%"struct.std::_Vector_base<float, gmx::DefaultInitializationAllocator<float>>::_Vector_impl" = type { %"struct.std::_Vector_base<float, gmx::DefaultInitializationAllocator<float>>::_Vector_impl_data" }
%"struct.std::_Vector_base<float, gmx::DefaultInitializationAllocator<float>>::_Vector_impl_data" = type { ptr, ptr, ptr }
%"struct.std::array.37" = type { [2 x %struct.pme_overlap_t] }
%struct.pme_overlap_t = type { ptr, i32, i32, %"class.std::vector.20", %"class.std::vector.20", i32, %"class.std::vector.38", %"class.std::vector.25", %"class.std::vector.25" }
%"class.std::vector.38" = type { %"struct.std::_Vector_base.39" }
%"struct.std::_Vector_base.39" = type { %"struct.std::_Vector_base<pme_grid_comm_t, std::allocator<pme_grid_comm_t>>::_Vector_impl" }
%"struct.std::_Vector_base<pme_grid_comm_t, std::allocator<pme_grid_comm_t>>::_Vector_impl" = type { %"struct.std::_Vector_base<pme_grid_comm_t, std::allocator<pme_grid_comm_t>>::_Vector_impl_data" }
%"struct.std::_Vector_base<pme_grid_comm_t, std::allocator<pme_grid_comm_t>>::_Vector_impl_data" = type { ptr, ptr, ptr }
%"class.std::unique_ptr.43" = type { %"struct.std::__uniq_ptr_data.44" }
%"struct.std::__uniq_ptr_data.44" = type { %"class.std::__uniq_ptr_impl.45" }
%"class.std::__uniq_ptr_impl.45" = type { %"class.std::tuple.46" }
%"class.std::tuple.46" = type { %"struct.std::_Tuple_impl.47" }
%"struct.std::_Tuple_impl.47" = type { %"struct.std::_Head_base.50" }
%"struct.std::_Head_base.50" = type { ptr }
%"class.std::vector.51" = type { %"struct.std::_Vector_base.52" }
%"struct.std::_Vector_base.52" = type { %"struct.std::_Vector_base<gmx::BasicVector<float>, std::allocator<gmx::BasicVector<float>>>::_Vector_impl" }
%"struct.std::_Vector_base<gmx::BasicVector<float>, std::allocator<gmx::BasicVector<float>>>::_Vector_impl" = type { %"struct.std::_Vector_base<gmx::BasicVector<float>, std::allocator<gmx::BasicVector<float>>>::_Vector_impl_data" }
%"struct.std::_Vector_base<gmx::BasicVector<float>, std::allocator<gmx::BasicVector<float>>>::_Vector_impl_data" = type { ptr, ptr, ptr }
%"class.std::vector.25" = type { %"struct.std::_Vector_base.26" }
%"struct.std::_Vector_base.26" = type { %"struct.std::_Vector_base<float, std::allocator<float>>::_Vector_impl" }
%"struct.std::_Vector_base<float, std::allocator<float>>::_Vector_impl" = type { %"struct.std::_Vector_base<float, std::allocator<float>>::_Vector_impl_data" }
%"struct.std::_Vector_base<float, std::allocator<float>>::_Vector_impl_data" = type { ptr, ptr, ptr }
%"class.std::unique_ptr.56" = type { %"struct.std::__uniq_ptr_data.57" }
%"struct.std::__uniq_ptr_data.57" = type { %"class.std::__uniq_ptr_impl.58" }
%"class.std::__uniq_ptr_impl.58" = type { %"class.std::tuple.59" }
%"class.std::tuple.59" = type { %"struct.std::_Tuple_impl.60" }
%"struct.std::_Tuple_impl.60" = type { %"struct.std::_Head_base.63" }
%"struct.std::_Head_base.63" = type { ptr }
%struct.PmeAndFftGrids = type { %struct.pmegrids_t, ptr, ptr, %"class.std::unique_ptr.70" }
%struct.pmegrids_t = type <{ %struct.pmegrid_t, i32, [3 x i32], %"class.std::vector.64", %"struct.std::array.69", [3 x i32], [4 x i8] }>
%struct.pmegrid_t = type { [3 x i32], [3 x i32], [3 x i32], i32, [3 x i32], %"class.gmx::ArrayRef" }
%"class.std::vector.64" = type { %"struct.std::_Vector_base.65" }
%"struct.std::_Vector_base.65" = type { %"struct.std::_Vector_base<pmegrid_t, std::allocator<pmegrid_t>>::_Vector_impl" }
%"struct.std::_Vector_base<pmegrid_t, std::allocator<pmegrid_t>>::_Vector_impl" = type { %"struct.std::_Vector_base<pmegrid_t, std::allocator<pmegrid_t>>::_Vector_impl_data" }
%"struct.std::_Vector_base<pmegrid_t, std::allocator<pmegrid_t>>::_Vector_impl_data" = type { ptr, ptr, ptr }
%"struct.std::array.69" = type { [3 x %"class.std::vector.20"] }
%"class.std::unique_ptr.70" = type { %"struct.std::__uniq_ptr_data.71" }
%"struct.std::__uniq_ptr_data.71" = type { %"class.std::__uniq_ptr_impl.72" }
%"class.std::__uniq_ptr_impl.72" = type { %"class.std::tuple.73" }
%"class.std::tuple.73" = type { %"struct.std::_Tuple_impl.74" }
%"struct.std::_Tuple_impl.74" = type { %"struct.std::_Head_base.77" }
%"struct.std::_Head_base.77" = type { ptr }

; Function Attrs: mustprogress nounwind uwtable
define linkonce_odr noundef nonnull align 8 dereferenceable(8) ptr @_ZNSt10_Head_baseILm0EP18gmx_parallel_3dfftLb0EE7_M_headERKS2_(ptr noundef nonnull align 8 dereferenceable(8) %0) #2 comdat align 2 {
  %2 = alloca ptr, align 8
  store ptr %0, ptr %2, align 8, !tbaa !183
  %3 = load ptr, ptr %2, align 8, !tbaa !183
  %4 = getelementptr inbounds nuw %"struct.std::_Head_base.77", ptr %3, i32 0, i32 0
  ret ptr %4
}

; Function Attrs: mustprogress nounwind uwtable
define linkonce_odr noundef nonnull align 8 dereferenceable(8) ptr @_ZNSt11_Tuple_implILm0EJP18gmx_parallel_3dfftN3gmx15functor_wrapperIS0_XadL_Z22parallel_3dfft_destroyS1_EEEEEE7_M_headERKS5_(ptr noundef nonnull align 8 dereferenceable(8) %0) #2 comdat align 2 {
  %2 = alloca ptr, align 8
  store ptr %0, ptr %2, align 8, !tbaa !181
  %3 = load ptr, ptr %2, align 8, !tbaa !181
  %4 = call noundef nonnull align 8 dereferenceable(8) ptr @_ZNSt10_Head_baseILm0EP18gmx_parallel_3dfftLb0EE7_M_headERKS2_(ptr noundef nonnull align 8 dereferenceable(8) %3) #7
  ret ptr %4
}

; Function Attrs: mustprogress nounwind uwtable
define linkonce_odr noundef nonnull align 8 dereferenceable(8) ptr @_ZSt12__get_helperILm0EP18gmx_parallel_3dfftJN3gmx15functor_wrapperIS0_XadL_Z22parallel_3dfft_destroyS1_EEEEEERKT0_RKSt11_Tuple_implIXT_EJS5_DpT1_EE(ptr noundef nonnull align 8 dereferenceable(8) %0) #2 comdat {
  %2 = alloca ptr, align 8
  store ptr %0, ptr %2, align 8, !tbaa !181
  %3 = load ptr, ptr %2, align 8, !tbaa !181
  %4 = call noundef nonnull align 8 dereferenceable(8) ptr @_ZNSt11_Tuple_implILm0EJP18gmx_parallel_3dfftN3gmx15functor_wrapperIS0_XadL_Z22parallel_3dfft_destroyS1_EEEEEE7_M_headERKS5_(ptr noundef nonnull align 8 dereferenceable(8) %3) #7
  ret ptr %4
}

; Function Attrs: mustprogress nounwind uwtable
define linkonce_odr noundef nonnull align 8 dereferenceable(8) ptr @_ZSt3getILm0EJP18gmx_parallel_3dfftN3gmx15functor_wrapperIS0_XadL_Z22parallel_3dfft_destroyS1_EEEEEERKNSt13tuple_elementIXT_ESt5tupleIJDpT0_EEE4typeERKS9_(ptr noundef nonnull align 8 dereferenceable(8) %0) #2 comdat {
  %2 = alloca ptr, align 8
  store ptr %0, ptr %2, align 8, !tbaa !179
  %3 = load ptr, ptr %2, align 8, !tbaa !179
  %4 = call noundef nonnull align 8 dereferenceable(8) ptr @_ZSt12__get_helperILm0EP18gmx_parallel_3dfftJN3gmx15functor_wrapperIS0_XadL_Z22parallel_3dfft_destroyS1_EEEEEERKT0_RKSt11_Tuple_implIXT_EJS5_DpT1_EE(ptr noundef nonnull align 8 dereferenceable(8) %3) #7
  ret ptr %4
}

; Function Attrs: mustprogress nounwind uwtable
define linkonce_odr noundef ptr @_ZNKSt15__uniq_ptr_implI18gmx_parallel_3dfftN3gmx15functor_wrapperIS0_XadL_Z22parallel_3dfft_destroyPS0_EEEEE6_M_ptrEv(ptr noundef nonnull align 8 dereferenceable(8) %0) #2 comdat align 2 {
  %2 = alloca ptr, align 8
  store ptr %0, ptr %2, align 8, !tbaa !176
  %3 = load ptr, ptr %2, align 8
  %4 = getelementptr inbounds nuw %"class.std::__uniq_ptr_impl.72", ptr %3, i32 0, i32 0
  %5 = call noundef nonnull align 8 dereferenceable(8) ptr @_ZSt3getILm0EJP18gmx_parallel_3dfftN3gmx15functor_wrapperIS0_XadL_Z22parallel_3dfft_destroyS1_EEEEEERKNSt13tuple_elementIXT_ESt5tupleIJDpT0_EEE4typeERKS9_(ptr noundef nonnull align 8 dereferenceable(8) %4) #7
  %6 = load ptr, ptr %5, align 8, !tbaa !178
  ret ptr %6
}

; Function Attrs: mustprogress nounwind uwtable
define linkonce_odr noundef ptr @_ZNK3gmx12ArrayRefIterIfE4dataEv(ptr noundef nonnull align 8 dereferenceable(8) %0) #2 comdat align 2 {
  %2 = alloca ptr, align 8
  store ptr %0, ptr %2, align 8, !tbaa !147
  %3 = load ptr, ptr %2, align 8
  %4 = getelementptr inbounds nuw %"struct.gmx::ArrayRefIter", ptr %3, i32 0, i32 0
  %5 = load ptr, ptr %4, align 8, !tbaa !149
  ret ptr %5
}

; Function Attrs: mustprogress nounwind uwtable
define linkonce_odr noundef ptr @_ZNKSt10unique_ptrI18gmx_parallel_3dfftN3gmx15functor_wrapperIS0_XadL_Z22parallel_3dfft_destroyPS0_EEEEE3getEv(ptr noundef nonnull align 8 dereferenceable(8) %0) #2 comdat align 2 {
  %2 = alloca ptr, align 8
  store ptr %0, ptr %2, align 8, !tbaa !174
  %3 = load ptr, ptr %2, align 8
  %4 = getelementptr inbounds nuw %"class.std::unique_ptr.70", ptr %3, i32 0, i32 0
  %5 = call noundef ptr @_ZNKSt15__uniq_ptr_implI18gmx_parallel_3dfftN3gmx15functor_wrapperIS0_XadL_Z22parallel_3dfft_destroyPS0_EEEEE6_M_ptrEv(ptr noundef nonnull align 8 dereferenceable(8) %4) #7
  ret ptr %5
}

; Function Attrs: mustprogress nounwind uwtable
define linkonce_odr noundef ptr @_ZNK3gmx8ArrayRefIfE4dataEv(ptr noundef nonnull align 8 dereferenceable(16) %0) #2 comdat align 2 {
  %2 = alloca ptr, align 8
  store ptr %0, ptr %2, align 8, !tbaa !140
  %3 = load ptr, ptr %2, align 8
  %4 = getelementptr inbounds nuw %"class.gmx::ArrayRef", ptr %3, i32 0, i32 0
  %5 = call noundef ptr @_ZNK3gmx12ArrayRefIterIfE4dataEv(ptr noundef nonnull align 8 dereferenceable(8) %4) #7
  ret ptr %5
}

; Function Attrs: mustprogress uwtable
define noundef i32 @_Z23copy_pmegrid_to_fftgridPK9gmx_pme_tP14PmeAndFftGrids(ptr noundef %0, ptr noundef %1) #0 {
  %3 = alloca ptr, align 8
  %4 = alloca ptr, align 8
  %5 = alloca ptr, align 8
  %6 = alloca ptr, align 8
  %7 = alloca [3 x i32], align 4
  %8 = alloca [3 x i32], align 4
  %9 = alloca [3 x i32], align 4
  %10 = alloca [3 x i32], align 4
  %11 = alloca i32, align 4
  %12 = alloca i32, align 4
  %13 = alloca i32, align 4
  %14 = alloca i32, align 4
  %15 = alloca i32, align 4
  store ptr %0, ptr %3, align 8, !tbaa !4
  store ptr %1, ptr %4, align 8, !tbaa !151
  call void @llvm.lifetime.start.p0(i64 8, ptr %5) #7
  %16 = load ptr, ptr %4, align 8, !tbaa !151
  %17 = getelementptr inbounds nuw %struct.PmeAndFftGrids, ptr %16, i32 0, i32 0
  %18 = getelementptr inbounds nuw %struct.pmegrids_t, ptr %17, i32 0, i32 0
  %19 = getelementptr inbounds nuw %struct.pmegrid_t, ptr %18, i32 0, i32 5
  %20 = call noundef ptr @_ZNK3gmx8ArrayRefIfE4dataEv(ptr noundef nonnull align 8 dereferenceable(16) %19)
  store ptr %20, ptr %5, align 8, !tbaa !130
  call void @llvm.lifetime.start.p0(i64 8, ptr %6) #7
  %21 = load ptr, ptr %4, align 8, !tbaa !151
  %22 = getelementptr inbounds nuw %struct.PmeAndFftGrids, ptr %21, i32 0, i32 1
  %23 = load ptr, ptr %22, align 8, !tbaa !152
  store ptr %23, ptr %6, align 8, !tbaa !130
  call void @llvm.lifetime.start.p0(i64 12, ptr %7) #7
  call void @llvm.lifetime.start.p0(i64 12, ptr %8) #7
  call void @llvm.lifetime.start.p0(i64 12, ptr %9) #7
  call void @llvm.lifetime.start.p0(i64 12, ptr %10) #7
  call void @llvm.lifetime.start.p0(i64 4, ptr %11) #7
  call void @llvm.lifetime.start.p0(i64 4, ptr %12) #7
  call void @llvm.lifetime.start.p0(i64 4, ptr %13) #7
  call void @llvm.lifetime.start.p0(i64 4, ptr %14) #7
  call void @llvm.lifetime.start.p0(i64 4, ptr %15) #7
  %24 = load ptr, ptr %4, align 8, !tbaa !151
  %25 = getelementptr inbounds nuw %struct.PmeAndFftGrids, ptr %24, i32 0, i32 3
  %26 = call noundef ptr @_ZNKSt10unique_ptrI18gmx_parallel_3dfftN3gmx15functor_wrapperIS0_XadL_Z22parallel_3dfft_destroyPS0_EEEEE3getEv(ptr noundef nonnull align 8 dereferenceable(8) %25) #7
  %27 = getelementptr inbounds [3 x i32], ptr %7, i64 0, i64 0
  %28 = getelementptr inbounds [3 x i32], ptr %8, i64 0, i64 0
  %29 = getelementptr inbounds [3 x i32], ptr %9, i64 0, i64 0
  %30 = call noundef i32 @_Z30gmx_parallel_3dfft_real_limitsP18gmx_parallel_3dfftPiS1_S1_(ptr noundef %26, ptr noundef %27, ptr noundef %28, ptr noundef %29)
  %31 = load ptr, ptr %3, align 8, !tbaa !4
  %32 = getelementptr inbounds nuw %struct.gmx_pme_t, ptr %31, i32 0, i32 32
  %33 = load i32, ptr %32, align 4, !tbaa !115
  %34 = getelementptr inbounds [3 x i32], ptr %10, i64 0, i64 0
  store i32 %33, ptr %34, align 4, !tbaa !9
  %35 = load ptr, ptr %3, align 8, !tbaa !4
  %36 = getelementptr inbounds nuw %struct.gmx_pme_t, ptr %35, i32 0, i32 33
  %37 = load i32, ptr %36, align 8, !tbaa !117
  %38 = getelementptr inbounds [3 x i32], ptr %10, i64 0, i64 1
  store i32 %37, ptr %38, align 4, !tbaa !9
  %39 = load ptr, ptr %3, align 8, !tbaa !4
  %40 = getelementptr inbounds nuw %struct.gmx_pme_t, ptr %39, i32 0, i32 34
  %41 = load i32, ptr %40, align 4, !tbaa !118
  %42 = getelementptr inbounds [3 x i32], ptr %10, i64 0, i64 2
  store i32 %41, ptr %42, align 4, !tbaa !9
  store i32 0, ptr %11, align 4, !tbaa !9
  br label %43

43:                                               ; preds = %106, %2
  %44 = load i32, ptr %11, align 4, !tbaa !9
  %45 = getelementptr inbounds [3 x i32], ptr %7, i64 0, i64 0
  %46 = load i32, ptr %45, align 4, !tbaa !9
  %47 = icmp slt i32 %44, %46
  br i1 %47, label %48, label %109

48:                                               ; preds = %43
  store i32 0, ptr %12, align 4, !tbaa !9
  br label %49

49:                                               ; preds = %102, %48
  %50 = load i32, ptr %12, align 4, !tbaa !9
  %51 = getelementptr inbounds [3 x i32], ptr %7, i64 0, i64 1
  %52 = load i32, ptr %51, align 4, !tbaa !9
  %53 = icmp slt i32 %50, %52
  br i1 %53, label %54, label %105

54:                                               ; preds = %49
  store i32 0, ptr %13, align 4, !tbaa !9
  br label %55

55:                                               ; preds = %98, %54
  %56 = load i32, ptr %13, align 4, !tbaa !9
  %57 = getelementptr inbounds [3 x i32], ptr %7, i64 0, i64 2
  %58 = load i32, ptr %57, align 4, !tbaa !9
  %59 = icmp slt i32 %56, %58
  br i1 %59, label %60, label %101

60:                                               ; preds = %55
  %61 = load i32, ptr %11, align 4, !tbaa !9
  %62 = getelementptr inbounds [3 x i32], ptr %10, i64 0, i64 1
  %63 = load i32, ptr %62, align 4, !tbaa !9
  %64 = getelementptr inbounds [3 x i32], ptr %10, i64 0, i64 2
  %65 = load i32, ptr %64, align 4, !tbaa !9
  %66 = mul nsw i32 %63, %65
  %67 = mul nsw i32 %61, %66
  %68 = load i32, ptr %12, align 4, !tbaa !9
  %69 = getelementptr inbounds [3 x i32], ptr %10, i64 0, i64 2
  %70 = load i32, ptr %69, align 4, !tbaa !9
  %71 = mul nsw i32 %68, %70
  %72 = add nsw i32 %67, %71
  %73 = load i32, ptr %13, align 4, !tbaa !9
  %74 = add nsw i32 %72, %73
  store i32 %74, ptr %14, align 4, !tbaa !9
  %75 = load i32, ptr %11, align 4, !tbaa !9
  %76 = getelementptr inbounds [3 x i32], ptr %9, i64 0, i64 1
  %77 = load i32, ptr %76, align 4, !tbaa !9
  %78 = getelementptr inbounds [3 x i32], ptr %9, i64 0, i64 2
  %79 = load i32, ptr %78, align 4, !tbaa !9
  %80 = mul nsw i32 %77, %79
  %81 = mul nsw i32 %75, %80
  %82 = load i32, ptr %12, align 4, !tbaa !9
  %83 = getelementptr inbounds [3 x i32], ptr %9, i64 0, i64 2
  %84 = load i32, ptr %83, align 4, !tbaa !9
  %85 = mul nsw i32 %82, %84
  %86 = add nsw i32 %81, %85
  %87 = load i32, ptr %13, align 4, !tbaa !9
  %88 = add nsw i32 %86, %87
  store i32 %88, ptr %15, align 4, !tbaa !9
  %89 = load ptr, ptr %5, align 8, !tbaa !130
  %90 = load i32, ptr %14, align 4, !tbaa !9
  %91 = sext i32 %90 to i64
  %92 = getelementptr inbounds float, ptr %89, i64 %91
  %93 = load float, ptr %92, align 4, !tbaa !119
  %94 = load ptr, ptr %6, align 8, !tbaa !130
  %95 = load i32, ptr %15, align 4, !tbaa !9
  %96 = sext i32 %95 to i64
  %97 = getelementptr inbounds float, ptr %94, i64 %96
  store float %93, ptr %97, align 4, !tbaa !119
  br label %98

98:                                               ; preds = %60
  %99 = load i32, ptr %13, align 4, !tbaa !9
  %100 = add nsw i32 %99, 1
  store i32 %100, ptr %13, align 4, !tbaa !9
  br label %55, !llvm.loop !171

101:                                              ; preds = %55
  br label %102

102:                                              ; preds = %101
  %103 = load i32, ptr %12, align 4, !tbaa !9
  %104 = add nsw i32 %103, 1
  store i32 %104, ptr %12, align 4, !tbaa !9
  br label %49, !llvm.loop !172

105:                                              ; preds = %49
  br label %106

106:                                              ; preds = %105
  %107 = load i32, ptr %11, align 4, !tbaa !9
  %108 = add nsw i32 %107, 1
  store i32 %108, ptr %11, align 4, !tbaa !9
  br label %43, !llvm.loop !173

109:                                              ; preds = %43
  call void @llvm.lifetime.end.p0(i64 4, ptr %15) #7
  call void @llvm.lifetime.end.p0(i64 4, ptr %14) #7
  call void @llvm.lifetime.end.p0(i64 4, ptr %13) #7
  call void @llvm.lifetime.end.p0(i64 4, ptr %12) #7
  call void @llvm.lifetime.end.p0(i64 4, ptr %11) #7
  call void @llvm.lifetime.end.p0(i64 12, ptr %10) #7
  call void @llvm.lifetime.end.p0(i64 12, ptr %9) #7
  call void @llvm.lifetime.end.p0(i64 12, ptr %8) #7
  call void @llvm.lifetime.end.p0(i64 12, ptr %7) #7
  call void @llvm.lifetime.end.p0(i64 8, ptr %6) #7
  call void @llvm.lifetime.end.p0(i64 8, ptr %5) #7
  ret i32 0
}