; Function Attrs: mustprogress uwtable
define noundef i32 @_Z23copy_pmegrid_to_fftgridPK9gmx_pme_tP14PmeAndFftGrids(ptr noundef readonly captures(none) %0, ptr noundef readonly captures(none) %1) local_unnamed_addr #0 {
  %3 = alloca [3 x i32], align 4
  %4 = alloca [3 x i32], align 4
  %5 = alloca [3 x i32], align 4
  %6 = getelementptr inbounds nuw i8, ptr %1, i64 56
  %7 = load ptr, ptr %6, align 8, !tbaa !125
  %8 = getelementptr inbounds nuw i8, ptr %1, i64 200
  %9 = load ptr, ptr %8, align 8, !tbaa !127
  call void @llvm.lifetime.start.p0(i64 12, ptr nonnull %3) #8
  call void @llvm.lifetime.start.p0(i64 12, ptr nonnull %4) #8
  call void @llvm.lifetime.start.p0(i64 12, ptr nonnull %5) #8
  %10 = getelementptr inbounds nuw i8, ptr %1, i64 216
  %11 = load ptr, ptr %10, align 8, !tbaa !146
  %12 = call noundef i32 @_Z30gmx_parallel_3dfft_real_limitsP18gmx_parallel_3dfftPiS1_S1_(ptr noundef %11, ptr noundef nonnull %3, ptr noundef nonnull %4, ptr noundef nonnull %5)
  %13 = getelementptr inbounds nuw i8, ptr %0, i64 152
  %14 = load i32, ptr %13, align 8, !tbaa !106
  %15 = getelementptr inbounds nuw i8, ptr %0, i64 156
  %16 = load i32, ptr %15, align 4, !tbaa !107
  %17 = load i32, ptr %3, align 4, !tbaa !11
  %18 = icmp sgt i32 %17, 0
  br i1 %18, label %.preheader26.lr.ph, label %._crit_edge

.preheader26.lr.ph:                               ; preds = %2
  %19 = getelementptr inbounds nuw i8, ptr %3, i64 4
  %20 = load i32, ptr %19, align 4, !tbaa !11
  %21 = icmp sgt i32 %20, 0
  %22 = getelementptr inbounds nuw i8, ptr %3, i64 8
  %23 = load i32, ptr %22, align 4
  %24 = icmp sgt i32 %23, 0
  %or.cond = select i1 %21, i1 %24, i1 false
  br i1 %or.cond, label %.preheader26.us.us.preheader, label %._crit_edge

.preheader26.us.us.preheader:                     ; preds = %.preheader26.lr.ph
  %25 = getelementptr inbounds nuw i8, ptr %5, i64 8
  %26 = getelementptr inbounds nuw i8, ptr %5, i64 4
  %.pre = load i32, ptr %26, align 4
  %.pre40 = load i32, ptr %25, align 4
  %wide.trip.count = zext nneg i32 %23 to i64
  br label %.preheader26.us.us

.preheader26.us.us:                               ; preds = %.preheader26.us.us.preheader, %._crit_edge29.split.us.us.us
  %.030.us.us = phi i32 [ %39, %._crit_edge29.split.us.us.us ], [ 0, %.preheader26.us.us.preheader ]
  %27 = mul i32 %.030.us.us, %14
  %28 = mul i32 %.pre, %.030.us.us
  br label %.preheader.us.us.us

.preheader.us.us.us:                              ; preds = %._crit_edge.us.us.us, %.preheader26.us.us
  %.02228.us.us.us = phi i32 [ 0, %.preheader26.us.us ], [ %38, %._crit_edge.us.us.us ]
  %reass.add.us.us.us = add i32 %.02228.us.us.us, %27
  %reass.mul.us.us.us = mul i32 %reass.add.us.us.us, %16
  %reass.add24.us.us.us = add i32 %28, %.02228.us.us.us
  %reass.mul25.us.us.us = mul i32 %reass.add24.us.us.us, %.pre40
  br label %29

29:                                               ; preds = %29, %.preheader.us.us.us
  %indvars.iv = phi i64 [ %indvars.iv.next, %29 ], [ 0, %.preheader.us.us.us ]
  %30 = trunc nuw nsw i64 %indvars.iv to i32
  %31 = add i32 %reass.mul.us.us.us, %30
  %32 = add i32 %reass.mul25.us.us.us, %30
  %33 = sext i32 %31 to i64
  %34 = getelementptr inbounds float, ptr %7, i64 %33
  %35 = load float, ptr %34, align 4, !tbaa !109
  %36 = sext i32 %32 to i64
  %37 = getelementptr inbounds float, ptr %9, i64 %36
  store float %35, ptr %37, align 4, !tbaa !109
  %indvars.iv.next = add nuw nsw i64 %indvars.iv, 1
  %exitcond.not = icmp eq i64 %indvars.iv.next, %wide.trip.count
  br i1 %exitcond.not, label %._crit_edge.us.us.us, label %29, !llvm.loop !147

._crit_edge.us.us.us:                             ; preds = %29
  %38 = add nuw nsw i32 %.02228.us.us.us, 1
  %exitcond38.not = icmp eq i32 %38, %20
  br i1 %exitcond38.not, label %._crit_edge29.split.us.us.us, label %.preheader.us.us.us, !llvm.loop !148

._crit_edge29.split.us.us.us:                     ; preds = %._crit_edge.us.us.us
  %39 = add nuw nsw i32 %.030.us.us, 1
  %exitcond39.not = icmp eq i32 %39, %17
  br i1 %exitcond39.not, label %._crit_edge, label %.preheader26.us.us, !llvm.loop !149

._crit_edge:                                      ; preds = %._crit_edge29.split.us.us.us, %.preheader26.lr.ph, %2
  call void @llvm.lifetime.end.p0(i64 12, ptr nonnull %5) #8
  call void @llvm.lifetime.end.p0(i64 12, ptr nonnull %4) #8
  call void @llvm.lifetime.end.p0(i64 12, ptr nonnull %3) #8
  ret i32 0
}